; Function Attrs: mustprogress uwtable
define internal fastcc noundef zeroext i1 @_ZN3gmx12_GLOBAL__N_129isAcceptableLibraryPathPrefixERKNSt10filesystem7__cxx114pathE(ptr noundef nonnull align 8 dereferenceable(40) %0) unnamed_addr #1 personality ptr @__gxx_personality_v0 {
  %2 = alloca %"class.std::filesystem::__cxx11::path", align 8
  call void @_ZNSt7__cxx1112basic_stringIcSt11char_traitsIcESaIcEEC1ERKS4_(ptr noundef nonnull align 8 dereferenceable(32) %2, ptr noundef nonnull align 8 dereferenceable(32) %0)
  %3 = getelementptr inbounds i8, ptr %2, i64 32
  %4 = getelementptr inbounds i8, ptr %0, i64 32
  invoke void @_ZNSt10filesystem7__cxx114path5_ListC1ERKS2_(ptr noundef nonnull align 8 dereferenceable(8) %3, ptr noundef nonnull align 8 dereferenceable(8) %4)
          to label %_ZNSt10filesystem7__cxx114pathC2ERKS1_.exit unwind label %5

common.resume:                                    ; preds = %11, %5
  %common.resume.op = phi { ptr, i32 } [ %6, %5 ], [ %12, %11 ]
  resume { ptr, i32 } %common.resume.op

5:                                                ; preds = %1
  %6 = landingpad { ptr, i32 }
          cleanup
  call void @_ZNSt7__cxx1112basic_stringIcSt11char_traitsIcESaIcEED1Ev(ptr noundef nonnull align 8 dereferenceable(32) %2) #13
  br label %common.resume

_ZNSt10filesystem7__cxx114pathC2ERKS1_.exit:      ; preds = %1
  invoke void @_ZNSt10filesystem7__cxx114path9_M_appendESt17basic_string_viewIcSt11char_traitsIcEE(ptr noundef nonnull align 8 dereferenceable(40) %2, i64 13, ptr nonnull @.str.14)
          to label %_ZNSt10filesystem7__cxx114path6appendIA14_cEERNSt9enable_ifIX13__is_path_srcIT_EES1_E4typeERKS5_.exit unwind label %11

_ZNSt10filesystem7__cxx114path6appendIA14_cEERNSt9enable_ifIX13__is_path_srcIT_EES1_E4typeERKS5_.exit: ; preds = %_ZNSt10filesystem7__cxx114pathC2ERKS1_.exit
  invoke void @_ZNSt10filesystem7__cxx114path9_M_appendESt17basic_string_viewIcSt11char_traitsIcEE(ptr noundef nonnull align 8 dereferenceable(40) %2, i64 3, ptr nonnull @.str.15)
          to label %_ZNSt10filesystem7__cxx114path6appendIA4_cEERNSt9enable_ifIX13__is_path_srcIT_EES1_E4typeERKS5_.exit unwind label %11

_ZNSt10filesystem7__cxx114path6appendIA4_cEERNSt9enable_ifIX13__is_path_srcIT_EES1_E4typeERKS5_.exit: ; preds = %_ZNSt10filesystem7__cxx114path6appendIA14_cEERNSt9enable_ifIX13__is_path_srcIT_EES1_E4typeERKS5_.exit
  %7 = invoke fastcc noundef zeroext i1 @_ZN3gmx12_GLOBAL__N_123isAcceptableLibraryPathERKNSt10filesystem7__cxx114pathE(ptr noundef nonnull align 8 dereferenceable(40) %2)
          to label %8 unwind label %11

8:                                                ; preds = %_ZNSt10filesystem7__cxx114path6appendIA4_cEERNSt9enable_ifIX13__is_path_srcIT_EES1_E4typeERKS5_.exit
  %9 = load ptr, ptr %3, align 8
  %.not.i.i.i = icmp eq ptr %9, null
  br i1 %.not.i.i.i, label %_ZNSt10filesystem7__cxx114pathD2Ev.exit, label %10

10:                                               ; preds = %8
  call void @_ZNKSt10filesystem7__cxx114path5_List13_Impl_deleterclEPNS2_5_ImplE(ptr noundef nonnull align 1 dereferenceable(1) %3, ptr noundef nonnull %9) #13
  br label %_ZNSt10filesystem7__cxx114pathD2Ev.exit

_ZNSt10filesystem7__cxx114pathD2Ev.exit:          ; preds = %8, %10
  store ptr null, ptr %3, align 8
  call void @_ZNSt7__cxx1112basic_stringIcSt11char_traitsIcESaIcEED1Ev(ptr noundef nonnull align 8 dereferenceable(32) %2) #13
  ret i1 %7

11:                                               ; preds = %_ZNSt10filesystem7__cxx114path6appendIA14_cEERNSt9enable_ifIX13__is_path_srcIT_EES1_E4typeERKS5_.exit, %_ZNSt10filesystem7__cxx114pathC2ERKS1_.exit, %_ZNSt10filesystem7__cxx114path6appendIA4_cEERNSt9enable_ifIX13__is_path_srcIT_EES1_E4typeERKS5_.exit
  %12 = landingpad { ptr, i32 }
          cleanup
  call void @_ZNSt10filesystem7__cxx114pathD2Ev(ptr noundef nonnull align 8 dereferenceable(40) %2) #13
  br label %common.resume
}